target datalayout = "e-m:e-p270:32:32-p271:32:32-p272:64:64-i64:64-i128:128-f80:128-n8:16:32:64-S128"
target triple = "x86_64-pc-linux-gnu"

; Function Attrs: nounwind uwtable
define zeroext i1 @pmix_iof_stdin_check(i32 noundef %0) #0 {
  %2 = alloca i1, align 1
  %3 = alloca i32, align 4
  store i32 %0, ptr %3, align 4, !tbaa !81
  %4 = load i32, ptr %3, align 4, !tbaa !81
  %5 = call i32 @isatty(i32 noundef %4) #13
  %6 = icmp ne i32 %5, 0
  br i1 %6, label %7, label %13

7:                                                ; preds = %1
  %8 = call i32 @getpgrp() #13
  %9 = load i32, ptr %3, align 4, !tbaa !81
  %10 = call i32 @tcgetpgrp(i32 noundef %9) #13
  %11 = icmp ne i32 %8, %10
  br i1 %11, label %12, label %13

12:                                               ; preds = %7
  store i1 false, ptr %2, align 1
  br label %14

13:                                               ; preds = %7, %1
  store i1 true, ptr %2, align 1
  br label %14

14:                                               ; preds = %13, %12
  %15 = load i1, ptr %2, align 1
  ret i1 %15
}