; Function Attrs: nounwind uwtable
define noundef zeroext i1 @pmix_iof_stdin_check(i32 noundef %0) local_unnamed_addr #0 {
  %2 = tail call i32 @isatty(i32 noundef %0) #18
  %.not = icmp eq i32 %2, 0
  br i1 %.not, label %6, label %3

3:                                                ; preds = %1
  %4 = tail call i32 @getpgrp() #18
  %5 = tail call i32 @tcgetpgrp(i32 noundef %0) #18
  %.not2 = icmp eq i32 %4, %5
  br i1 %.not2, label %6, label %7

6:                                                ; preds = %3, %1
  br label %7

7:                                                ; preds = %3, %6
  %.0 = phi i1 [ true, %6 ], [ false, %3 ]
  ret i1 %.0
}